; Function Attrs: mustprogress nounwind uwtable
define hidden void @_ZN17FailedSpeculation24free_failed_speculationsEPPS_(ptr nocapture noundef %0) local_unnamed_addr #2 align 2 {
  %2 = load ptr, ptr %0, align 8
  %.not8 = icmp eq ptr %2, null
  %3 = ptrtoint ptr %2 to i64
  br i1 %.not8, label %._crit_edge, label %.lr.ph

.lr.ph:                                           ; preds = %1, %.lr.ph
  %.09 = phi ptr [ %5, %.lr.ph ], [ %2, %1 ]
  %4 = getelementptr inbounds i8, ptr %.09, i64 8
  %5 = load ptr, ptr %4, align 8
  tail call void @_Z8FreeHeapPv(ptr noundef nonnull %.09) #20
  %.not = icmp eq ptr %5, null
  br i1 %.not, label %._crit_edge.loopexit, label %.lr.ph, !llvm.loop !25

._crit_edge.loopexit:                             ; preds = %.lr.ph
  %.pre = load i64, ptr %0, align 8
  br label %._crit_edge

._crit_edge:                                      ; preds = %._crit_edge.loopexit, %1
  %6 = phi i64 [ %.pre, %._crit_edge.loopexit ], [ %3, %1 ]
  %7 = or i64 %6, 1
  store i64 %7, ptr %0, align 8
  ret void
}